target datalayout = "e-m:e-p270:32:32-p271:32:32-p272:64:64-i64:64-i128:128-f80:128-n8:16:32:64-S128"
target triple = "x86_64-pc-linux-gnu"

%struct._packet_info = type { ptr, ptr, i32, i32, %struct.nstime_t, %struct.nstime_t, %struct.nstime_t, i32, ptr, ptr, ptr, ptr, %struct._address, %struct._address, %struct._address, %struct._address, %struct._address, %struct._address, i32, ptr, i32, %struct.anon, i32, i32, i32, i32, ptr, i32, ptr, ptr, i16, i16, i32, i32, i16, i32, i32, ptr, ptr, ptr, i8, i8, i16, i16, i16, i32, i16, i16, ptr, ptr, ptr, ptr, ptr, i32 }
%struct.nstime_t = type { i64, i32 }
%struct._address = type { i32, i32, ptr, ptr }
%struct.anon = type { i8, [3 x i8] }

@.str.90 = private unnamed_addr constant [29 x i8] c"<String too long to process>\00", align 1
@.str.91 = private unnamed_addr constant [16 x i8] c"<Not Specified>\00", align 1

; Function Attrs: nounwind uwtable
define internal i32 @nmas_string(ptr noundef %0, ptr noundef %1, i32 noundef %2, ptr noundef %3, i32 noundef %4, i32 noundef %5) #0 {
  %7 = alloca i32, align 4
  %8 = alloca ptr, align 8
  %9 = alloca ptr, align 8
  %10 = alloca i32, align 4
  %11 = alloca ptr, align 8
  %12 = alloca i32, align 4
  %13 = alloca i32, align 4
  %14 = alloca i32, align 4
  %15 = alloca i32, align 4
  %16 = alloca ptr, align 8
  %17 = alloca i32, align 4
  %18 = alloca i16, align 2
  %19 = alloca i32, align 4
  store ptr %0, ptr %8, align 8
  store ptr %1, ptr %9, align 8
  store i32 %2, ptr %10, align 4
  store ptr %3, ptr %11, align 8
  store i32 %4, ptr %12, align 4
  store i32 %5, ptr %13, align 4
  %20 = load i32, ptr %12, align 4
  store i32 %20, ptr %14, align 4
  store i32 0, ptr %19, align 4
  %21 = load ptr, ptr %8, align 8
  %22 = getelementptr inbounds %struct._packet_info, ptr %21, i32 0, i32 50
  %23 = load ptr, ptr %22, align 8
  %24 = call noalias ptr @wmem_alloc(ptr noundef %23, i64 noundef 241)
  store ptr %24, ptr %16, align 8
  %25 = load i32, ptr %13, align 4
  %26 = icmp ne i32 %25, 0
  br i1 %26, label %27, label %31

27:                                               ; preds = %6
  %28 = load ptr, ptr %9, align 8
  %29 = load i32, ptr %14, align 4
  %30 = call i32 @tvb_get_letohl(ptr noundef %28, i32 noundef %29)
  store i32 %30, ptr %15, align 4
  br label %35

31:                                               ; preds = %6
  %32 = load ptr, ptr %9, align 8
  %33 = load i32, ptr %14, align 4
  %34 = call i32 @tvb_get_ntohl(ptr noundef %32, i32 noundef %33)
  store i32 %34, ptr %15, align 4
  br label %35

35:                                               ; preds = %31, %27
  %36 = load i32, ptr %14, align 4
  %37 = add i32 %36, 4
  store i32 %37, ptr %14, align 4
  %38 = load i32, ptr %15, align 4
  %39 = icmp uge i32 %38, 240
  br i1 %39, label %40, label %52

40:                                               ; preds = %35
  %41 = load ptr, ptr %11, align 8
  %42 = load i32, ptr %10, align 4
  %43 = load ptr, ptr %9, align 8
  %44 = load i32, ptr %14, align 4
  %45 = load i32, ptr %19, align 4
  %46 = add i32 %45, 4
  %47 = call ptr @proto_tree_add_string(ptr noundef %41, i32 noundef %42, ptr noundef %43, i32 noundef %44, i32 noundef %46, ptr noundef @.str.90)
  %48 = load i32, ptr %19, align 4
  %49 = load i32, ptr %14, align 4
  %50 = add i32 %49, %48
  store i32 %50, ptr %14, align 4
  %51 = load i32, ptr %14, align 4
  store i32 %51, ptr %7, align 4
  br label %146

52:                                               ; preds = %35
  %53 = load i32, ptr %15, align 4
  %54 = icmp eq i32 %53, 0
  br i1 %54, label %55, label %62

55:                                               ; preds = %52
  %56 = load ptr, ptr %11, align 8
  %57 = load i32, ptr %10, align 4
  %58 = load ptr, ptr %9, align 8
  %59 = load i32, ptr %12, align 4
  %60 = call ptr @proto_tree_add_string(ptr noundef %56, i32 noundef %57, ptr noundef %58, i32 noundef %59, i32 noundef 4, ptr noundef @.str.91)
  %61 = load i32, ptr %14, align 4
  store i32 %61, ptr %7, align 4
  br label %146

62:                                               ; preds = %52
  store i32 0, ptr %17, align 4
  br label %63

63:                                               ; preds = %118, %62
  %64 = load i32, ptr %17, align 4
  %65 = load i32, ptr %15, align 4
  %66 = icmp ult i32 %64, %65
  br i1 %66, label %67, label %121

67:                                               ; preds = %63
  %68 = load ptr, ptr %9, align 8
  %69 = load i32, ptr %14, align 4
  %70 = call zeroext i8 @tvb_get_guint8(ptr noundef %68, i32 noundef %69)
  %71 = zext i8 %70 to i16
  store i16 %71, ptr %18, align 2
  %72 = load i16, ptr %18, align 2
  %73 = zext i16 %72 to i32
  %74 = icmp slt i32 %73, 32
  br i1 %74, label %79, label %75

75:                                               ; preds = %67
  %76 = load i16, ptr %18, align 2
  %77 = zext i16 %76 to i32
  %78 = icmp sgt i32 %77, 126
  br i1 %78, label %79, label %98

79:                                               ; preds = %75, %67
  %80 = load i16, ptr %18, align 2
  %81 = zext i16 %80 to i32
  %82 = icmp ne i32 %81, 0
  br i1 %82, label %83, label %92

83:                                               ; preds = %79
  store i16 46, ptr %18, align 2
  %84 = load i16, ptr %18, align 2
  %85 = zext i16 %84 to i32
  %86 = and i32 %85, 255
  %87 = trunc i32 %86 to i8
  %88 = load ptr, ptr %16, align 8
  %89 = load i32, ptr %17, align 4
  %90 = zext i32 %89 to i64
  %91 = getelementptr i8, ptr %88, i64 %90
  store i8 %87, ptr %91, align 1
  br label %97

92:                                               ; preds = %79
  %93 = load i32, ptr %17, align 4
  %94 = add i32 %93, -1
  store i32 %94, ptr %17, align 4
  %95 = load i32, ptr %15, align 4
  %96 = add i32 %95, -1
  store i32 %96, ptr %15, align 4
  br label %97

97:                                               ; preds = %92, %83
  br label %107

98:                                               ; preds = %75
  %99 = load i16, ptr %18, align 2
  %100 = zext i16 %99 to i32
  %101 = and i32 %100, 255
  %102 = trunc i32 %101 to i8
  %103 = load ptr, ptr %16, align 8
  %104 = load i32, ptr %17, align 4
  %105 = zext i32 %104 to i64
  %106 = getelementptr i8, ptr %103, i64 %105
  store i8 %102, ptr %106, align 1
  br label %107

107:                                              ; preds = %98, %97
  %108 = load i32, ptr %14, align 4
  %109 = add i32 %108, 1
  store i32 %109, ptr %14, align 4
  %110 = load i32, ptr %19, align 4
  %111 = add i32 %110, -1
  store i32 %111, ptr %19, align 4
  %112 = load i32, ptr %19, align 4
  %113 = icmp eq i32 %112, 1
  br i1 %113, label %114, label %117

114:                                              ; preds = %107
  %115 = load i32, ptr %17, align 4
  %116 = add i32 %115, 1
  store i32 %116, ptr %17, align 4
  br label %121

117:                                              ; preds = %107
  br label %118

118:                                              ; preds = %117
  %119 = load i32, ptr %17, align 4
  %120 = add i32 %119, 1
  store i32 %120, ptr %17, align 4
  br label %63, !llvm.loop !6

121:                                              ; preds = %114, %63
  %122 = load ptr, ptr %16, align 8
  %123 = load i32, ptr %17, align 4
  %124 = zext i32 %123 to i64
  %125 = getelementptr i8, ptr %122, i64 %124
  store i8 0, ptr %125, align 1
  %126 = load i32, ptr %13, align 4
  %127 = icmp ne i32 %126, 0
  br i1 %127, label %128, label %132

128:                                              ; preds = %121
  %129 = load ptr, ptr %9, align 8
  %130 = load i32, ptr %12, align 4
  %131 = call i32 @tvb_get_letohl(ptr noundef %129, i32 noundef %130)
  store i32 %131, ptr %15, align 4
  br label %136

132:                                              ; preds = %121
  %133 = load ptr, ptr %9, align 8
  %134 = load i32, ptr %12, align 4
  %135 = call i32 @tvb_get_ntohl(ptr noundef %133, i32 noundef %134)
  store i32 %135, ptr %15, align 4
  br label %136

136:                                              ; preds = %132, %128
  %137 = load ptr, ptr %11, align 8
  %138 = load i32, ptr %10, align 4
  %139 = load ptr, ptr %9, align 8
  %140 = load i32, ptr %12, align 4
  %141 = add i32 %140, 4
  %142 = load i32, ptr %15, align 4
  %143 = load ptr, ptr %16, align 8
  %144 = call ptr @proto_tree_add_string(ptr noundef %137, i32 noundef %138, ptr noundef %139, i32 noundef %141, i32 noundef %142, ptr noundef %143)
  %145 = load i32, ptr %14, align 4
  store i32 %145, ptr %7, align 4
  br label %146

146:                                              ; preds = %136, %55, %40
  %147 = load i32, ptr %7, align 4
  ret i32 %147
}