; Function Attrs: nounwind uwtable
define internal fastcc noundef i32 @nmas_string(ptr %.408.val, ptr noundef %0, i32 noundef %1, ptr noundef %2, i32 noundef %3, i32 noundef range(i32 0, 2) %4) unnamed_addr #0 {
  %6 = tail call noalias ptr @wmem_alloc(ptr noundef %.408.val, i64 noundef 241) #2
  %.not = icmp eq i32 %4, 0
  br i1 %.not, label %9, label %7

7:                                                ; preds = %5
  %8 = tail call i32 @tvb_get_letohl(ptr noundef %0, i32 noundef %3) #2
  br label %11

9:                                                ; preds = %5
  %10 = tail call i32 @tvb_get_ntohl(ptr noundef %0, i32 noundef %3) #2
  br label %11

11:                                               ; preds = %9, %7
  %.061 = phi i32 [ %8, %7 ], [ %10, %9 ]
  %12 = add i32 %3, 4
  %13 = icmp ugt i32 %.061, 239
  br i1 %13, label %14, label %16

14:                                               ; preds = %11
  %15 = tail call ptr @proto_tree_add_string(ptr noundef %2, i32 noundef %1, ptr noundef %0, i32 noundef %12, i32 noundef 4, ptr noundef nonnull @.str.90) #2
  br label %46

16:                                               ; preds = %11
  %17 = icmp eq i32 %.061, 0
  br i1 %17, label %18, label %.preheader

18:                                               ; preds = %16
  %19 = tail call ptr @proto_tree_add_string(ptr noundef %2, i32 noundef %1, ptr noundef %0, i32 noundef %3, i32 noundef 4, ptr noundef nonnull @.str.91) #2
  br label %46

.preheader:                                       ; preds = %16, %32
  %.06 = phi i32 [ %34, %32 ], [ 0, %16 ]
  %.0595 = phi i32 [ %36, %32 ], [ 0, %16 ]
  %.1624 = phi i32 [ %.263, %32 ], [ %.061, %16 ]
  %.0643 = phi i32 [ %33, %32 ], [ %12, %16 ]
  %20 = tail call zeroext i8 @tvb_get_guint8(ptr noundef %0, i32 noundef %.0643) #2
  %21 = add i8 %20, -127
  %or.cond = icmp ult i8 %21, -95
  br i1 %or.cond, label %22, label %29

22:                                               ; preds = %.preheader
  %.not68 = icmp eq i8 %20, 0
  br i1 %.not68, label %26, label %23

23:                                               ; preds = %22
  %24 = zext i32 %.0595 to i64
  %25 = getelementptr i8, ptr %6, i64 %24
  store i8 46, ptr %25, align 1
  br label %32

26:                                               ; preds = %22
  %27 = add i32 %.0595, -1
  %28 = add i32 %.1624, -1
  br label %32

29:                                               ; preds = %.preheader
  %30 = zext i32 %.0595 to i64
  %31 = getelementptr i8, ptr %6, i64 %30
  store i8 %20, ptr %31, align 1
  br label %32

32:                                               ; preds = %23, %26, %29
  %.263 = phi i32 [ %.1624, %23 ], [ %28, %26 ], [ %.1624, %29 ]
  %.2 = phi i32 [ %.0595, %23 ], [ %27, %26 ], [ %.0595, %29 ]
  %33 = add i32 %.0643, 1
  %34 = add i32 %.06, -1
  %35 = icmp ne i32 %34, 1
  %36 = add i32 %.2, 1
  %37 = icmp ult i32 %36, %.263
  %or.cond16 = select i1 %35, i1 %37, i1 false
  br i1 %or.cond16, label %.preheader, label %.loopexit, !llvm.loop !6

.loopexit:                                        ; preds = %32
  %38 = zext i32 %36 to i64
  %39 = getelementptr i8, ptr %6, i64 %38
  store i8 0, ptr %39, align 1
  br i1 %.not, label %42, label %40

40:                                               ; preds = %.loopexit
  %41 = tail call i32 @tvb_get_letohl(ptr noundef %0, i32 noundef %3) #2
  br label %44

42:                                               ; preds = %.loopexit
  %43 = tail call i32 @tvb_get_ntohl(ptr noundef %0, i32 noundef %3) #2
  br label %44

44:                                               ; preds = %42, %40
  %.3 = phi i32 [ %41, %40 ], [ %43, %42 ]
  %45 = tail call ptr @proto_tree_add_string(ptr noundef %2, i32 noundef %1, ptr noundef %0, i32 noundef %12, i32 noundef %.3, ptr noundef nonnull %6) #2
  br label %46

46:                                               ; preds = %44, %18, %14
  %.060 = phi i32 [ %12, %14 ], [ %12, %18 ], [ %33, %44 ]
  ret i32 %.060
}